; Function Attrs: mustprogress uwtable
define dso_local void @_ZN3net19QuicStreamSequencer12SetUnblockedEv(ptr noundef nonnull align 8 dereferenceable(169) %this) local_unnamed_addr #0 align 2 {
entry:
  %blocked_ = getelementptr inbounds i8, ptr %this, i64 144
  store i8 0, ptr %blocked_, align 8
  %buffered_frames_.i = getelementptr inbounds i8, ptr %this, i64 16
  %call.i = tail call noundef i64 @_ZNK3net25QuicStreamSequencerBuffer13BytesConsumedEv(ptr noundef nonnull align 8 dereferenceable(120) %buffered_frames_.i)
  %close_offset_.i = getelementptr inbounds i8, ptr %this, i64 136
  %0 = load i64, ptr %close_offset_.i, align 8
  %cmp.i.not = icmp ult i64 %call.i, %0
  br i1 %cmp.i.not, label %lor.lhs.false, label %if.then

lor.lhs.false:                                    ; preds = %entry
  %call.i2 = tail call noundef zeroext i1 @_ZNK3net25QuicStreamSequencerBuffer14HasBytesToReadEv(ptr noundef nonnull align 8 dereferenceable(120) %buffered_frames_.i)
  br i1 %call.i2, label %if.then, label %if.end

if.then:                                          ; preds = %lor.lhs.false, %entry
  %stream_ = getelementptr inbounds i8, ptr %this, i64 8
  %1 = load ptr, ptr %stream_, align 8
  %vtable = load ptr, ptr %1, align 8
  %vfn = getelementptr inbounds i8, ptr %vtable, i64 56
  %2 = load ptr, ptr %vfn, align 8
  tail call void %2(ptr noundef nonnull align 8 dereferenceable(377) %1)
  br label %if.end

if.end:                                           ; preds = %if.then, %lor.lhs.false
  ret void
}